; Function Attrs: mustprogress ssp uwtable
define noundef nonnull align 8 dereferenceable(144) ptr @_ZN6open3d8geometry9TetraMesh5ClearEv(ptr noundef nonnull returned align 8 dereferenceable(144) %0) unnamed_addr #1 align 2 personality ptr @__gxx_personality_v0 {
  %2 = tail call noundef nonnull align 8 dereferenceable(120) ptr @_ZN6open3d8geometry8MeshBase5ClearEv(ptr noundef nonnull align 8 dereferenceable(120) %0)
  %3 = getelementptr inbounds nuw i8, ptr %0, i64 120
  %4 = load ptr, ptr %3, align 8, !tbaa !7
  %5 = getelementptr inbounds nuw i8, ptr %0, i64 128
  %6 = load ptr, ptr %5, align 8, !tbaa !23
  %.not.i.i = icmp eq ptr %6, %4
  br i1 %.not.i.i, label %_ZNSt6vectorIN5Eigen6MatrixIiLi4ELi1ELi0ELi4ELi1EEENS0_17aligned_allocatorIS2_EEE5clearEv.exit, label %7

7:                                                ; preds = %1
  store ptr %4, ptr %5, align 8, !tbaa !23
  br label %_ZNSt6vectorIN5Eigen6MatrixIiLi4ELi1ELi0ELi4ELi1EEENS0_17aligned_allocatorIS2_EEE5clearEv.exit

_ZNSt6vectorIN5Eigen6MatrixIiLi4ELi1ELi0ELi4ELi1EEENS0_17aligned_allocatorIS2_EEE5clearEv.exit: ; preds = %1, %7
  ret ptr %0
}